; ModuleID = 'source-C-CXX/3/1905.cpp'
source_filename = "source-C-CXX/3/1905.cpp"
target datalayout = "e-m:e-p270:32:32-p271:32:32-p272:64:64-i64:64-f80:128-n8:16:32:64-S128"
target triple = "x86_64-pc-linux-gnu"

%"class.std::ios_base::Init" = type { i8 }
%"class.std::basic_istream" = type { i32 (...)**, i64, %"class.std::basic_ios" }
%"class.std::basic_ios" = type { %"class.std::ios_base", %"class.std::basic_ostream"*, i8, i8, %"class.std::basic_streambuf"*, %"class.std::ctype"*, %"class.std::num_put"*, %"class.std::num_get"* }
%"class.std::ios_base" = type { i32 (...)**, i64, i64, i32, i32, i32, %"struct.std::ios_base::_Callback_list"*, %"struct.std::ios_base::_Words", [8 x %"struct.std::ios_base::_Words"], i32, %"struct.std::ios_base::_Words"*, %"class.std::locale" }
%"struct.std::ios_base::_Callback_list" = type { %"struct.std::ios_base::_Callback_list"*, void (i32, %"class.std::ios_base"*, i32)*, i32, i32 }
%"struct.std::ios_base::_Words" = type { i8*, i64 }
%"class.std::locale" = type { %"class.std::locale::_Impl"* }
%"class.std::locale::_Impl" = type { i32, %"class.std::locale::facet"**, i64, %"class.std::locale::facet"**, i8** }
%"class.std::locale::facet" = type <{ i32 (...)**, i32, [4 x i8] }>
%"class.std::basic_ostream" = type { i32 (...)**, %"class.std::basic_ios" }
%"class.std::basic_streambuf" = type { i32 (...)**, i8*, i8*, i8*, i8*, i8*, i8*, %"class.std::locale" }
%"class.std::ctype" = type <{ %"class.std::locale::facet.base", [4 x i8], %struct.__locale_struct*, i8, [7 x i8], i32*, i32*, i16*, i8, [256 x i8], [256 x i8], i8, [6 x i8] }>
%"class.std::locale::facet.base" = type <{ i32 (...)**, i32 }>
%struct.__locale_struct = type { [13 x %struct.__locale_data*], i16*, i32*, i32*, [13 x i8*] }
%struct.__locale_data = type opaque
%"class.std::num_put" = type { %"class.std::locale::facet.base", [4 x i8] }
%"class.std::num_get" = type { %"class.std::locale::facet.base", [4 x i8] }

@_ZStL8__ioinit = internal global %"class.std::ios_base::Init" zeroinitializer, align 1
@__dso_handle = external hidden global i8
@_ZSt3cin = external global %"class.std::basic_istream", align 8
@_ZSt4cout = external global %"class.std::basic_ostream", align 8
@llvm.global_ctors = appending global [1 x { i32, void ()*, i8* }] [{ i32, void ()*, i8* } { i32 65535, void ()* @_GLOBAL__sub_I_1905.cpp, i8* null }]

declare void @_ZNSt8ios_base4InitC1Ev(%"class.std::ios_base::Init"* nonnull align 1 dereferenceable(1)) unnamed_addr #0

; Function Attrs: nounwind
declare void @_ZNSt8ios_base4InitD1Ev(%"class.std::ios_base::Init"* nonnull align 1 dereferenceable(1)) unnamed_addr #1

; Function Attrs: nofree nounwind
declare i32 @__cxa_atexit(void (i8*)*, i8*, i8*) local_unnamed_addr #2

; Function Attrs: mustprogress norecurse sspstrong uwtable
define dso_local i32 @main() local_unnamed_addr #3 {
  %1 = alloca i32, align 4
  %2 = alloca i32, align 4
  %3 = alloca [10010 x i32], align 16
  %4 = bitcast i32* %1 to i8*
  call void @llvm.lifetime.start.p0i8(i64 4, i8* nonnull %4) #7
  %5 = bitcast i32* %2 to i8*
  call void @llvm.lifetime.start.p0i8(i64 4, i8* nonnull %5) #7
  %6 = call nonnull align 8 dereferenceable(16) %"class.std::basic_istream"* @_ZNSirsERi(%"class.std::basic_istream"* nonnull align 8 dereferenceable(16) @_ZSt3cin, i32* nonnull align 4 dereferenceable(4) %1)
  %7 = call nonnull align 8 dereferenceable(16) %"class.std::basic_istream"* @_ZNSirsERi(%"class.std::basic_istream"* nonnull align 8 dereferenceable(16) %6, i32* nonnull align 4 dereferenceable(4) %2)
  %8 = bitcast [10010 x i32]* %3 to i8*
  call void @llvm.lifetime.start.p0i8(i64 40040, i8* nonnull %8) #7
  %9 = load i32, i32* %1, align 4, !tbaa !5
  %10 = load i32, i32* %2, align 4, !tbaa !5
  %11 = mul nsw i32 %10, %9
  %12 = icmp sgt i32 %11, 0
  br i1 %12, label %13, label %15

13:                                               ; preds = %0
  %14 = getelementptr inbounds [10010 x i32], [10010 x i32]* %3, i64 0, i64 0
  br label %20

15:                                               ; preds = %20, %0
  %16 = phi i32 [ %10, %0 ], [ %27, %20 ]
  %17 = phi i32 [ %9, %0 ], [ %26, %20 ]
  %18 = add nsw i32 %16, %17
  %19 = icmp sgt i32 %18, 0
  br i1 %19, label %30, label %33

20:                                               ; preds = %13, %20
  %21 = phi i32* [ %24, %20 ], [ %14, %13 ]
  %22 = phi i32 [ %25, %20 ], [ 0, %13 ]
  %23 = call nonnull align 8 dereferenceable(16) %"class.std::basic_istream"* @_ZNSirsERi(%"class.std::basic_istream"* nonnull align 8 dereferenceable(16) @_ZSt3cin, i32* nonnull align 4 dereferenceable(4) %21)
  %24 = getelementptr inbounds i32, i32* %21, i64 1
  %25 = add nuw nsw i32 %22, 1
  %26 = load i32, i32* %1, align 4, !tbaa !5
  %27 = load i32, i32* %2, align 4, !tbaa !5
  %28 = mul nsw i32 %27, %26
  %29 = icmp slt i32 %25, %28
  br i1 %29, label %20, label %15, !llvm.loop !9

30:                                               ; preds = %15, %86
  %31 = phi i32 [ %88, %86 ], [ %16, %15 ]
  %32 = phi i64 [ %89, %86 ], [ 0, %15 ]
  br label %34

33:                                               ; preds = %86, %15
  call void @llvm.lifetime.end.p0i8(i64 40040, i8* nonnull %8) #7
  call void @llvm.lifetime.end.p0i8(i64 4, i8* nonnull %5) #7
  call void @llvm.lifetime.end.p0i8(i64 4, i8* nonnull %4) #7
  ret i32 0

34:                                               ; preds = %83, %30
  %35 = phi i32 [ %31, %30 ], [ %85, %83 ]
  %36 = phi i64 [ %32, %30 ], [ %84, %83 ]
  %37 = trunc i64 %36 to i32
  %38 = icmp sgt i32 %35, %37
  br i1 %38, label %39, label %81

39:                                               ; preds = %34
  %40 = sub nuw nsw i64 %32, %36
  %41 = load i32, i32* %1, align 4, !tbaa !5
  %42 = sext i32 %41 to i64
  %43 = icmp slt i64 %40, %42
  br i1 %43, label %44, label %81

44:                                               ; preds = %39
  %45 = getelementptr inbounds [10010 x i32], [10010 x i32]* %3, i64 0, i64 %36
  %46 = trunc i64 %40 to i32
  %47 = mul nsw i32 %35, %46
  %48 = sext i32 %47 to i64
  %49 = getelementptr inbounds i32, i32* %45, i64 %48
  %50 = load i32, i32* %49, align 4, !tbaa !5
  %51 = call nonnull align 8 dereferenceable(8) %"class.std::basic_ostream"* @_ZNSolsEi(%"class.std::basic_ostream"* nonnull align 8 dereferenceable(8) @_ZSt4cout, i32 %50)
  %52 = bitcast %"class.std::basic_ostream"* %51 to i8**
  %53 = load i8*, i8** %52, align 8, !tbaa !11
  %54 = getelementptr i8, i8* %53, i64 -24
  %55 = bitcast i8* %54 to i64*
  %56 = load i64, i64* %55, align 8
  %57 = bitcast %"class.std::basic_ostream"* %51 to i8*
  %58 = add nsw i64 %56, 240
  %59 = getelementptr inbounds i8, i8* %57, i64 %58
  %60 = bitcast i8* %59 to %"class.std::ctype"**
  %61 = load %"class.std::ctype"*, %"class.std::ctype"** %60, align 8, !tbaa !13
  %62 = icmp eq %"class.std::ctype"* %61, null
  br i1 %62, label %63, label %64

63:                                               ; preds = %44
  call void @_ZSt16__throw_bad_castv() #8
  unreachable

64:                                               ; preds = %44
  %65 = getelementptr inbounds %"class.std::ctype", %"class.std::ctype"* %61, i64 0, i32 8
  %66 = load i8, i8* %65, align 8, !tbaa !17
  %67 = icmp eq i8 %66, 0
  br i1 %67, label %71, label %68

68:                                               ; preds = %64
  %69 = getelementptr inbounds %"class.std::ctype", %"class.std::ctype"* %61, i64 0, i32 9, i64 10
  %70 = load i8, i8* %69, align 1, !tbaa !19
  br label %77

71:                                               ; preds = %64
  call void @_ZNKSt5ctypeIcE13_M_widen_initEv(%"class.std::ctype"* nonnull align 8 dereferenceable(570) %61)
  %72 = bitcast %"class.std::ctype"* %61 to i8 (%"class.std::ctype"*, i8)***
  %73 = load i8 (%"class.std::ctype"*, i8)**, i8 (%"class.std::ctype"*, i8)*** %72, align 8, !tbaa !11
  %74 = getelementptr inbounds i8 (%"class.std::ctype"*, i8)*, i8 (%"class.std::ctype"*, i8)** %73, i64 6
  %75 = load i8 (%"class.std::ctype"*, i8)*, i8 (%"class.std::ctype"*, i8)** %74, align 8
  %76 = call signext i8 %75(%"class.std::ctype"* nonnull align 8 dereferenceable(570) %61, i8 signext 10)
  br label %77

77:                                               ; preds = %68, %71
  %78 = phi i8 [ %70, %68 ], [ %76, %71 ]
  %79 = call nonnull align 8 dereferenceable(8) %"class.std::basic_ostream"* @_ZNSo3putEc(%"class.std::basic_ostream"* nonnull align 8 dereferenceable(8) %51, i8 signext %78)
  %80 = call nonnull align 8 dereferenceable(8) %"class.std::basic_ostream"* @_ZNSo5flushEv(%"class.std::basic_ostream"* nonnull align 8 dereferenceable(8) %79)
  br label %81

81:                                               ; preds = %34, %39, %77
  %82 = icmp sgt i64 %36, 0
  br i1 %82, label %83, label %86, !llvm.loop !20

83:                                               ; preds = %81
  %84 = add nsw i64 %36, -1
  %85 = load i32, i32* %2, align 4, !tbaa !5
  br label %34

86:                                               ; preds = %81
  %87 = load i32, i32* %1, align 4, !tbaa !5
  %88 = load i32, i32* %2, align 4, !tbaa !5
  %89 = add nuw nsw i64 %32, 1
  %90 = add nsw i32 %88, %87
  %91 = sext i32 %90 to i64
  %92 = icmp slt i64 %89, %91
  br i1 %92, label %30, label %33, !llvm.loop !21
}

; Function Attrs: argmemonly mustprogress nofree nosync nounwind willreturn
declare void @llvm.lifetime.start.p0i8(i64 immarg, i8* nocapture) #4

declare nonnull align 8 dereferenceable(16) %"class.std::basic_istream"* @_ZNSirsERi(%"class.std::basic_istream"* nonnull align 8 dereferenceable(16), i32* nonnull align 4 dereferenceable(4)) local_unnamed_addr #0

declare nonnull align 8 dereferenceable(8) %"class.std::basic_ostream"* @_ZNSolsEi(%"class.std::basic_ostream"* nonnull align 8 dereferenceable(8), i32) local_unnamed_addr #0

; Function Attrs: argmemonly mustprogress nofree nosync nounwind willreturn
declare void @llvm.lifetime.end.p0i8(i64 immarg, i8* nocapture) #4

declare nonnull align 8 dereferenceable(8) %"class.std::basic_ostream"* @_ZNSo3putEc(%"class.std::basic_ostream"* nonnull align 8 dereferenceable(8), i8 signext) local_unnamed_addr #0

declare nonnull align 8 dereferenceable(8) %"class.std::basic_ostream"* @_ZNSo5flushEv(%"class.std::basic_ostream"* nonnull align 8 dereferenceable(8)) local_unnamed_addr #0

; Function Attrs: noreturn
declare void @_ZSt16__throw_bad_castv() local_unnamed_addr #5

declare void @_ZNKSt5ctypeIcE13_M_widen_initEv(%"class.std::ctype"* nonnull align 8 dereferenceable(570)) local_unnamed_addr #0

; Function Attrs: sspstrong uwtable
define internal void @_GLOBAL__sub_I_1905.cpp() #6 section ".text.startup" {
  tail call void @_ZNSt8ios_base4InitC1Ev(%"class.std::ios_base::Init"* nonnull align 1 dereferenceable(1) @_ZStL8__ioinit)
  %1 = tail call i32 @__cxa_atexit(void (i8*)* bitcast (void (%"class.std::ios_base::Init"*)* @_ZNSt8ios_base4InitD1Ev to void (i8*)*), i8* getelementptr inbounds (%"class.std::ios_base::Init", %"class.std::ios_base::Init"* @_ZStL8__ioinit, i64 0, i32 0), i8* nonnull @__dso_handle) #7
  ret void
}


!llvm.module.flags = !{!0, !1, !2, !3}
!llvm.ident = !{!4}

!0 = !{i32 1, !"wchar_size", i32 4}
!1 = !{i32 7, !"PIC Level", i32 2}
!2 = !{i32 7, !"PIE Level", i32 2}
!3 = !{i32 7, !"uwtable", i32 1}
!4 = !{!"clang version 13.0.0"}
!5 = !{!6, !6, i64 0}
!6 = !{!"int", !7, i64 0}
!7 = !{!"omnipotent char", !8, i64 0}
!8 = !{!"Simple C++ TBAA"}
!9 = distinct !{!9, !10}
!10 = !{!"llvm.loop.mustprogress"}
!11 = !{!12, !12, i64 0}
!12 = !{!"vtable pointer", !8, i64 0}
!13 = !{!14, !15, i64 240}
!14 = !{!"_ZTSSt9basic_iosIcSt11char_traitsIcEE", !15, i64 216, !7, i64 224, !16, i64 225, !15, i64 232, !15, i64 240, !15, i64 248, !15, i64 256}
!15 = !{!"any pointer", !7, i64 0}
!16 = !{!"bool", !7, i64 0}
!17 = !{!18, !7, i64 56}
!18 = !{!"_ZTSSt5ctypeIcE", !15, i64 16, !16, i64 24, !15, i64 32, !15, i64 40, !15, i64 48, !7, i64 56, !7, i64 57, !7, i64 313, !7, i64 569}
!19 = !{!7, !7, i64 0}
!20 = distinct !{!20, !10}
!21 = distinct !{!21, !10}
